; Function Attrs: nounwind uwtable
define zeroext range(i8 0, 2) i8 @l_Array_anyMUnsafe_any___at___private_Lean_Meta_CongrTheorems_0__Lean_Meta_hasCastLike___spec__1(ptr noundef readonly captures(none) %0, i64 noundef %1, i64 noundef %2) local_unnamed_addr #1 {
  %.not51 = icmp eq i64 %1, %2
  br i1 %.not51, label %lean_dec.exit32._crit_edge, label %.lr.ph

.lr.ph:                                           ; preds = %3
  %4 = getelementptr inbounds nuw i8, ptr %0, i64 24
  br label %5

5:                                                ; preds = %.lr.ph, %24
  %.02352 = phi i64 [ %1, %.lr.ph ], [ %25, %24 ]
  %6 = getelementptr inbounds nuw [0 x ptr], ptr %4, i64 0, i64 %.02352
  %7 = load ptr, ptr %6, align 8, !tbaa !10
  %8 = ptrtoint ptr %7 to i64
  %9 = and i64 %8, 1
  %.not.i39 = icmp eq i64 %9, 0
  br i1 %.not.i39, label %10, label %lean_dec.exit32

10:                                               ; preds = %5
  %.val.i.i = load i32, ptr %7, align 4, !tbaa !4
  %11 = icmp sgt i32 %.val.i.i, 0
  br i1 %11, label %12, label %14, !prof !9

12:                                               ; preds = %10
  %13 = add nuw i32 %.val.i.i, 1
  store i32 %13, ptr %7, align 4, !tbaa !4
  br label %16

14:                                               ; preds = %10
  %.not.i.i = icmp eq i32 %.val.i.i, 0
  br i1 %.not.i.i, label %lean_dec.exit32, label %15

15:                                               ; preds = %14
  tail call void @lean_inc_ref_cold(ptr noundef nonnull %7) #7
  %.pr = load i32, ptr %7, align 4, !tbaa !4
  br label %16

16:                                               ; preds = %12, %15
  %17 = phi i32 [ %13, %12 ], [ %.pr, %15 ]
  %18 = icmp sgt i32 %17, 1
  br i1 %18, label %19, label %21, !prof !14

19:                                               ; preds = %16
  %20 = add nsw i32 %17, -1
  store i32 %20, ptr %7, align 4, !tbaa !4
  br label %lean_dec.exit32

21:                                               ; preds = %16
  %.not.i = icmp eq i32 %17, 0
  br i1 %.not.i, label %lean_dec.exit32, label %22

22:                                               ; preds = %21
  tail call void @lean_dec_ref_cold(ptr noundef nonnull %7) #7
  br label %lean_dec.exit32

lean_dec.exit32:                                  ; preds = %5, %14, %22, %21, %19
  %23 = lshr i64 %8, 1
  %trunc = trunc i64 %23 to i8
  switch i8 %trunc, label %24 [
    i8 3, label %lean_dec.exit32._crit_edge
    i8 5, label %lean_dec.exit32._crit_edge
  ]

24:                                               ; preds = %lean_dec.exit32
  %25 = add i64 %.02352, 1
  %.not = icmp eq i64 %25, %2
  br i1 %.not, label %lean_dec.exit32._crit_edge, label %5

lean_dec.exit32._crit_edge:                       ; preds = %24, %lean_dec.exit32, %lean_dec.exit32, %3
  %.3.ph = phi i8 [ 0, %3 ], [ 1, %lean_dec.exit32 ], [ 1, %lean_dec.exit32 ], [ 0, %24 ]
  ret i8 %.3.ph
}